; Function Attrs: nounwind uwtable
define internal void @cw_out_close(ptr readnone captures(none) %0, ptr noundef readonly captures(none) %1) #1 {
  %3 = getelementptr inbounds nuw i8, ptr %1, i64 16
  %4 = load ptr, ptr %3, align 8, !tbaa !3
  %5 = getelementptr inbounds nuw i8, ptr %4, i64 32
  %6 = load ptr, ptr %5, align 8, !tbaa !11
  %.not5.i = icmp eq ptr %6, null
  br i1 %.not5.i, label %cw_out_bufs_free.exit, label %.lr.ph.i

.lr.ph.i:                                         ; preds = %2, %.lr.ph.i
  %7 = phi ptr [ %8, %.lr.ph.i ], [ %6, %2 ]
  %8 = load ptr, ptr %7, align 8, !tbaa !14
  %9 = getelementptr inbounds nuw i8, ptr %7, i64 8
  tail call void @Curl_dyn_free(ptr noundef nonnull %9) #5
  %10 = load ptr, ptr @Curl_cfree, align 8, !tbaa !19
  tail call void %10(ptr noundef nonnull %7) #5
  store ptr %8, ptr %5, align 8, !tbaa !11
  %.not.i = icmp eq ptr %8, null
  br i1 %.not.i, label %cw_out_bufs_free.exit, label %.lr.ph.i, !llvm.loop !20

cw_out_bufs_free.exit:                            ; preds = %.lr.ph.i, %2
  ret void
}